; Function Attrs: mustprogress uwtable
define void @_ZN7Archive11ViewCommentEv(ptr noundef nonnull align 8 dereferenceable(57108) %0) local_unnamed_addr #0 align 2 personality ptr @__gxx_personality_v0 {
  %2 = alloca %class.Array.5, align 8
  %3 = getelementptr inbounds i8, ptr %0, i64 11056
  %4 = load ptr, ptr %3, align 8
  %5 = getelementptr inbounds i8, ptr %4, i64 57446
  %6 = load i8, ptr %5, align 2
  %7 = trunc i8 %6 to i1
  br i1 %7, label %_ZN5ArrayIwED2Ev.exit9, label %8

8:                                                ; preds = %1
  call void @llvm.memset.p0.i64(ptr noundef nonnull align 8 dereferenceable(32) %2, i8 0, i64 32, i1 false)
  %9 = getelementptr inbounds i8, ptr %0, i64 48846
  %10 = load i8, ptr %9, align 2
  %11 = trunc i8 %10 to i1
  br i1 %11, label %12, label %_ZN5ArrayIwED2Ev.exit9

12:                                               ; preds = %8
  %13 = load ptr, ptr %0, align 8
  %14 = getelementptr inbounds i8, ptr %13, i64 48
  %15 = load ptr, ptr %14, align 8
  %16 = invoke noundef i64 %15(ptr noundef nonnull align 8 dereferenceable(57108) %0)
          to label %.noexc unwind label %29

.noexc:                                           ; preds = %12
  %17 = invoke noundef zeroext i1 @_ZN7Archive12DoGetCommentEP5ArrayIwE(ptr noundef nonnull align 8 dereferenceable(57108) %0, ptr noundef nonnull %2)
          to label %.noexc6 unwind label %29

.noexc6:                                          ; preds = %.noexc
  %18 = load ptr, ptr %0, align 8
  %19 = getelementptr inbounds i8, ptr %18, i64 40
  %20 = load ptr, ptr %19, align 8
  invoke void %20(ptr noundef nonnull align 8 dereferenceable(57108) %0, i64 noundef %16, i32 noundef 0)
          to label %_ZN7Archive10GetCommentEP5ArrayIwE.exit unwind label %29

_ZN7Archive10GetCommentEP5ArrayIwE.exit:          ; preds = %.noexc6
  %.pr.pre = load ptr, ptr %2, align 8
  br i1 %17, label %21, label %_ZN7Archive10GetCommentEP5ArrayIwE.exit.thread

21:                                               ; preds = %_ZN7Archive10GetCommentEP5ArrayIwE.exit
  %22 = getelementptr inbounds i8, ptr %2, i64 8
  %23 = load i64, ptr %22, align 8
  %24 = tail call ptr @wcschr(ptr noundef nonnull %.pr.pre, i32 noundef signext 26) #18
  %.not = icmp eq ptr %24, null
  %25 = ptrtoint ptr %24 to i64
  %26 = ptrtoint ptr %.pr.pre to i64
  %27 = sub i64 %25, %26
  %28 = ashr exact i64 %27, 2
  %.0 = select i1 %.not, i64 %23, i64 %28
  invoke void @_Z10OutCommentPKwm(ptr noundef nonnull %.pr.pre, i64 noundef %.0)
          to label %_ZN7Archive10GetCommentEP5ArrayIwE.exit.thread unwind label %29

29:                                               ; preds = %.noexc6, %.noexc, %12, %21
  %30 = landingpad { ptr, i32 }
          cleanup
  %31 = load ptr, ptr %2, align 8
  %.not.i = icmp eq ptr %31, null
  br i1 %.not.i, label %_ZN5ArrayIwED2Ev.exit, label %32

32:                                               ; preds = %29
  tail call void @free(ptr noundef nonnull %31) #16
  br label %_ZN5ArrayIwED2Ev.exit

_ZN5ArrayIwED2Ev.exit:                            ; preds = %29, %32
  resume { ptr, i32 } %30

_ZN7Archive10GetCommentEP5ArrayIwE.exit.thread:   ; preds = %21, %_ZN7Archive10GetCommentEP5ArrayIwE.exit
  %.not.i8 = icmp eq ptr %.pr.pre, null
  br i1 %.not.i8, label %_ZN5ArrayIwED2Ev.exit9, label %33

33:                                               ; preds = %_ZN7Archive10GetCommentEP5ArrayIwE.exit.thread
  tail call void @free(ptr noundef nonnull %.pr.pre) #16
  br label %_ZN5ArrayIwED2Ev.exit9

_ZN5ArrayIwED2Ev.exit9:                           ; preds = %8, %33, %_ZN7Archive10GetCommentEP5ArrayIwE.exit.thread, %1
  ret void
}